target datalayout = "e-m:e-p270:32:32-p271:32:32-p272:64:64-i64:64-i128:128-f80:128-n8:16:32:64-S128"
target triple = "x86_64-pc-linux-gnu"

@subpel_filters = internal constant [7 x [6 x i8]] [[6 x i8] c"\00\06{\0C\01\00", [6 x i8] c"\02\0Bl$\08\01", [6 x i8] c"\00\09]2\06\00", [6 x i8] c"\03\10MM\10\03", [6 x i8] c"\00\062]\09\00", [6 x i8] c"\01\08$l\0B\02", [6 x i8] c"\00\01\0C{\06\00"], align 16
@ff_crop_tab = external hidden constant [2304 x i8], align 16

; Function Attrs: nounwind uwtable
define internal void @put_vp8_epel4_v4_c(ptr noundef %0, i64 noundef %1, ptr noundef %2, i64 noundef %3, i32 noundef %4, i32 noundef %5, i32 noundef %6) #1 {
  %8 = alloca ptr, align 8
  %9 = alloca i64, align 8
  %10 = alloca ptr, align 8
  %11 = alloca i64, align 8
  %12 = alloca i32, align 4
  %13 = alloca i32, align 4
  %14 = alloca i32, align 4
  %15 = alloca ptr, align 8
  %16 = alloca ptr, align 8
  %17 = alloca i32, align 4
  %18 = alloca i32, align 4
  store ptr %0, ptr %8, align 8, !tbaa !10
  store i64 %1, ptr %9, align 8, !tbaa !12
  store ptr %2, ptr %10, align 8, !tbaa !10
  store i64 %3, ptr %11, align 8, !tbaa !12
  store i32 %4, ptr %12, align 4, !tbaa !14
  store i32 %5, ptr %13, align 4, !tbaa !14
  store i32 %6, ptr %14, align 4, !tbaa !14
  call void @llvm.lifetime.start.p0(i64 8, ptr %15) #6
  %19 = load i32, ptr %14, align 4, !tbaa !14
  %20 = sub nsw i32 %19, 1
  %21 = sext i32 %20 to i64
  %22 = getelementptr inbounds [7 x [6 x i8]], ptr @subpel_filters, i64 0, i64 %21
  %23 = getelementptr inbounds [6 x i8], ptr %22, i64 0, i64 0
  store ptr %23, ptr %15, align 8, !tbaa !10
  call void @llvm.lifetime.start.p0(i64 8, ptr %16) #6
  store ptr getelementptr inbounds (i8, ptr @ff_crop_tab, i64 1024), ptr %16, align 8, !tbaa !10
  call void @llvm.lifetime.start.p0(i64 4, ptr %17) #6
  call void @llvm.lifetime.start.p0(i64 4, ptr %18) #6
  store i32 0, ptr %18, align 4, !tbaa !14
  br label %24

24:                                               ; preds = %112, %7
  %25 = load i32, ptr %18, align 4, !tbaa !14
  %26 = load i32, ptr %12, align 4, !tbaa !14
  %27 = icmp slt i32 %25, %26
  br i1 %27, label %28, label %115

28:                                               ; preds = %24
  store i32 0, ptr %17, align 4, !tbaa !14
  br label %29

29:                                               ; preds = %102, %28
  %30 = load i32, ptr %17, align 4, !tbaa !14
  %31 = icmp slt i32 %30, 4
  br i1 %31, label %32, label %105

32:                                               ; preds = %29
  %33 = load ptr, ptr %16, align 8, !tbaa !10
  %34 = load ptr, ptr %15, align 8, !tbaa !10
  %35 = getelementptr inbounds i8, ptr %34, i64 2
  %36 = load i8, ptr %35, align 1, !tbaa !18
  %37 = zext i8 %36 to i32
  %38 = load ptr, ptr %10, align 8, !tbaa !10
  %39 = load i32, ptr %17, align 4, !tbaa !14
  %40 = sext i32 %39 to i64
  %41 = load i64, ptr %11, align 8, !tbaa !12
  %42 = mul nsw i64 0, %41
  %43 = add nsw i64 %40, %42
  %44 = getelementptr inbounds i8, ptr %38, i64 %43
  %45 = load i8, ptr %44, align 1, !tbaa !18
  %46 = zext i8 %45 to i32
  %47 = mul nsw i32 %37, %46
  %48 = load ptr, ptr %15, align 8, !tbaa !10
  %49 = getelementptr inbounds i8, ptr %48, i64 1
  %50 = load i8, ptr %49, align 1, !tbaa !18
  %51 = zext i8 %50 to i32
  %52 = load ptr, ptr %10, align 8, !tbaa !10
  %53 = load i32, ptr %17, align 4, !tbaa !14
  %54 = sext i32 %53 to i64
  %55 = load i64, ptr %11, align 8, !tbaa !12
  %56 = mul nsw i64 1, %55
  %57 = sub nsw i64 %54, %56
  %58 = getelementptr inbounds i8, ptr %52, i64 %57
  %59 = load i8, ptr %58, align 1, !tbaa !18
  %60 = zext i8 %59 to i32
  %61 = mul nsw i32 %51, %60
  %62 = sub nsw i32 %47, %61
  %63 = load ptr, ptr %15, align 8, !tbaa !10
  %64 = getelementptr inbounds i8, ptr %63, i64 3
  %65 = load i8, ptr %64, align 1, !tbaa !18
  %66 = zext i8 %65 to i32
  %67 = load ptr, ptr %10, align 8, !tbaa !10
  %68 = load i32, ptr %17, align 4, !tbaa !14
  %69 = sext i32 %68 to i64
  %70 = load i64, ptr %11, align 8, !tbaa !12
  %71 = mul nsw i64 1, %70
  %72 = add nsw i64 %69, %71
  %73 = getelementptr inbounds i8, ptr %67, i64 %72
  %74 = load i8, ptr %73, align 1, !tbaa !18
  %75 = zext i8 %74 to i32
  %76 = mul nsw i32 %66, %75
  %77 = add nsw i32 %62, %76
  %78 = load ptr, ptr %15, align 8, !tbaa !10
  %79 = getelementptr inbounds i8, ptr %78, i64 4
  %80 = load i8, ptr %79, align 1, !tbaa !18
  %81 = zext i8 %80 to i32
  %82 = load ptr, ptr %10, align 8, !tbaa !10
  %83 = load i32, ptr %17, align 4, !tbaa !14
  %84 = sext i32 %83 to i64
  %85 = load i64, ptr %11, align 8, !tbaa !12
  %86 = mul nsw i64 2, %85
  %87 = add nsw i64 %84, %86
  %88 = getelementptr inbounds i8, ptr %82, i64 %87
  %89 = load i8, ptr %88, align 1, !tbaa !18
  %90 = zext i8 %89 to i32
  %91 = mul nsw i32 %81, %90
  %92 = sub nsw i32 %77, %91
  %93 = add nsw i32 %92, 64
  %94 = ashr i32 %93, 7
  %95 = sext i32 %94 to i64
  %96 = getelementptr inbounds i8, ptr %33, i64 %95
  %97 = load i8, ptr %96, align 1, !tbaa !18
  %98 = load ptr, ptr %8, align 8, !tbaa !10
  %99 = load i32, ptr %17, align 4, !tbaa !14
  %100 = sext i32 %99 to i64
  %101 = getelementptr inbounds i8, ptr %98, i64 %100
  store i8 %97, ptr %101, align 1, !tbaa !18
  br label %102

102:                                              ; preds = %32
  %103 = load i32, ptr %17, align 4, !tbaa !14
  %104 = add nsw i32 %103, 1
  store i32 %104, ptr %17, align 4, !tbaa !14
  br label %29, !llvm.loop !73

105:                                              ; preds = %29
  %106 = load i64, ptr %9, align 8, !tbaa !12
  %107 = load ptr, ptr %8, align 8, !tbaa !10
  %108 = getelementptr inbounds i8, ptr %107, i64 %106
  store ptr %108, ptr %8, align 8, !tbaa !10
  %109 = load i64, ptr %11, align 8, !tbaa !12
  %110 = load ptr, ptr %10, align 8, !tbaa !10
  %111 = getelementptr inbounds i8, ptr %110, i64 %109
  store ptr %111, ptr %10, align 8, !tbaa !10
  br label %112

112:                                              ; preds = %105
  %113 = load i32, ptr %18, align 4, !tbaa !14
  %114 = add nsw i32 %113, 1
  store i32 %114, ptr %18, align 4, !tbaa !14
  br label %24, !llvm.loop !74

115:                                              ; preds = %24
  call void @llvm.lifetime.end.p0(i64 4, ptr %18) #6
  call void @llvm.lifetime.end.p0(i64 4, ptr %17) #6
  call void @llvm.lifetime.end.p0(i64 8, ptr %16) #6
  call void @llvm.lifetime.end.p0(i64 8, ptr %15) #6
  ret void
}